target datalayout = "e-m:e-p270:32:32-p271:32:32-p272:64:64-i64:64-i128:128-f80:128-n8:16:32:64-S128"
target triple = "x86_64-pc-linux-gnu"

%"class.(anonymous namespace)::itanium_demangle::Node.base" = type <{ ptr, i8, i16 }>
%"class.(anonymous namespace)::itanium_demangle::QualType" = type { %"class.(anonymous namespace)::itanium_demangle::Node.base", i32, ptr }

; Function Attrs: mustprogress uwtable
define internal void @_ZNK12_GLOBAL__N_116itanium_demangle8QualType10printRightERNS0_12OutputBufferE(ptr noundef nonnull align 8 dereferenceable(24) %0, ptr noundef nonnull align 8 dereferenceable(44) %1) unnamed_addr #3 align 2 {
  %3 = alloca ptr, align 8
  %4 = alloca ptr, align 8
  store ptr %0, ptr %3, align 8, !tbaa !24
  store ptr %1, ptr %4, align 8, !tbaa !226
  %5 = load ptr, ptr %3, align 8
  %6 = load ptr, ptr %4, align 8, !tbaa !226
  %7 = getelementptr inbounds nuw %"class.(anonymous namespace)::itanium_demangle::QualType", ptr %5, i32 0, i32 2
  %8 = load ptr, ptr %7, align 8, !tbaa !482
  %9 = load ptr, ptr %6, align 8, !tbaa !232
  %10 = getelementptr inbounds ptr, ptr %9, i64 3
  %11 = load ptr, ptr %10, align 8
  call void %11(ptr noundef nonnull align 8 dereferenceable(44) %6, ptr noundef nonnull align 8 dereferenceable(11) %8)
  ret void
}